target datalayout = "e-m:e-p270:32:32-p271:32:32-p272:64:64-i64:64-i128:128-f80:128-n8:16:32:64-S128"
target triple = "x86_64-pc-linux-gnu"

%"class.icu_77::UnicodeString" = type { %"class.icu_77::Replaceable", %"union.icu_77::UnicodeString::StackBufferOrFields" }
%"class.icu_77::Replaceable" = type { %"class.icu_77::UObject" }
%"class.icu_77::UObject" = type { ptr }
%"union.icu_77::UnicodeString::StackBufferOrFields" = type { %struct.anon.0, [32 x i8] }
%struct.anon.0 = type { i16, i32, i32, ptr }
%"class.icu_77::CollationDataBuilder" = type { %"class.icu_77::UObject", ptr, ptr, ptr, ptr, %"class.icu_77::UVector32", %"class.icu_77::UVector64", %"class.icu_77::UVector", %"class.icu_77::UnicodeSet", %"class.icu_77::UnicodeString", i32, [4 x i8], %"class.icu_77::UnicodeSet", i8, i8, i8, ptr, ptr }
%"class.icu_77::UVector32" = type { %"class.icu_77::UObject", i32, i32, i32, ptr }
%"class.icu_77::UVector64" = type { %"class.icu_77::UObject", i32, i32, i32, ptr }
%"class.icu_77::UVector" = type { %"class.icu_77::UObject", i32, i32, ptr, ptr, ptr }
%"class.icu_77::UnicodeSet" = type <{ %"class.icu_77::UnicodeFilter", ptr, i32, i32, i8, [7 x i8], ptr, ptr, i32, [4 x i8], ptr, i32, [4 x i8], ptr, ptr, [25 x i32], [4 x i8] }>
%"class.icu_77::UnicodeFilter" = type { %"class.icu_77::UnicodeFunctor", %"class.icu_77::UnicodeMatcher" }
%"class.icu_77::UnicodeFunctor" = type { %"class.icu_77::UObject" }
%"class.icu_77::UnicodeMatcher" = type { ptr }

; Function Attrs: mustprogress nounwind uwtable
define linkonce_odr noundef i32 @_ZN6icu_779Collation23makeCE32FromTagAndIndexEii(i32 noundef %0, i32 noundef %1) #1 comdat align 2 {
  %3 = alloca i32, align 4
  %4 = alloca i32, align 4
  store i32 %0, ptr %3, align 4, !tbaa !57
  store i32 %1, ptr %4, align 4, !tbaa !57
  %5 = load i32, ptr %4, align 4, !tbaa !57
  %6 = shl i32 %5, 13
  %7 = or i32 %6, 192
  %8 = load i32, ptr %3, align 4, !tbaa !57
  %9 = or i32 %7, %8
  ret i32 %9
}

; Function Attrs: mustprogress uwtable
define void @_ZN6icu_7720CollationDataBuilder17setLeadSurrogatesER10UErrorCode(ptr noundef nonnull align 8 dereferenceable(640) %0, ptr noundef nonnull align 4 dereferenceable(4) %1) #4 align 2 {
  %3 = alloca ptr, align 8
  %4 = alloca ptr, align 8
  %5 = alloca i16, align 2
  %6 = alloca i32, align 4
  store ptr %0, ptr %3, align 8, !tbaa !13
  store ptr %1, ptr %4, align 8, !tbaa !8
  %7 = load ptr, ptr %3, align 8
  call void @llvm.lifetime.start.p0(i64 2, ptr %5) #11
  store i16 -10240, ptr %5, align 2, !tbaa !156
  br label %8

8:                                                ; preds = %26, %2
  %9 = load i16, ptr %5, align 2, !tbaa !156
  %10 = zext i16 %9 to i32
  %11 = icmp slt i32 %10, 56320
  br i1 %11, label %13, label %12

12:                                               ; preds = %8
  call void @llvm.lifetime.end.p0(i64 2, ptr %5) #11
  br label %29

13:                                               ; preds = %8
  call void @llvm.lifetime.start.p0(i64 4, ptr %6) #11
  store i32 -1, ptr %6, align 4, !tbaa !57
  %14 = getelementptr inbounds nuw %"class.icu_77::CollationDataBuilder", ptr %7, i32 0, i32 4
  %15 = load ptr, ptr %14, align 8, !tbaa !99
  %16 = load i16, ptr %5, align 2, !tbaa !156
  %17 = zext i16 %16 to i32
  call void @utrie2_enumForLeadSurrogate_77(ptr noundef %15, i32 noundef %17, ptr noundef null, ptr noundef @_ZN6icu_77L18enumRangeLeadValueEPKviij, ptr noundef %6)
  %18 = getelementptr inbounds nuw %"class.icu_77::CollationDataBuilder", ptr %7, i32 0, i32 4
  %19 = load ptr, ptr %18, align 8, !tbaa !99
  %20 = load i16, ptr %5, align 2, !tbaa !156
  %21 = zext i16 %20 to i32
  %22 = call noundef i32 @_ZN6icu_779Collation23makeCE32FromTagAndIndexEii(i32 noundef 13, i32 noundef 0)
  %23 = load i32, ptr %6, align 4, !tbaa !57
  %24 = or i32 %22, %23
  %25 = load ptr, ptr %4, align 8, !tbaa !8
  call void @utrie2_set32ForLeadSurrogateCodeUnit_77(ptr noundef %19, i32 noundef %21, i32 noundef %24, ptr noundef %25)
  call void @llvm.lifetime.end.p0(i64 4, ptr %6) #11
  br label %26

26:                                               ; preds = %13
  %27 = load i16, ptr %5, align 2, !tbaa !156
  %28 = add i16 %27, 1
  store i16 %28, ptr %5, align 2, !tbaa !156
  br label %8, !llvm.loop !194

29:                                               ; preds = %12
  ret void
}