; Function Attrs: mustprogress uwtable
define void @_ZN6icu_7720CollationDataBuilder17setLeadSurrogatesER10UErrorCode(ptr noundef nonnull readonly align 8 captures(none) dereferenceable(640) %0, ptr noundef nonnull align 4 dereferenceable(4) %1) local_unnamed_addr #6 align 2 {
  %3 = alloca i32, align 4
  %4 = getelementptr inbounds nuw i8, ptr %0, i64 32
  br label %6

5:                                                ; preds = %6
  ret void

6:                                                ; preds = %2, %6
  %indvars.iv = phi i32 [ 55296, %2 ], [ %indvars.iv.next, %6 ]
  call void @llvm.lifetime.start.p0(i64 4, ptr nonnull %3) #19
  store i32 -1, ptr %3, align 4, !tbaa !66
  %7 = load ptr, ptr %4, align 8, !tbaa !80
  call void @utrie2_enumForLeadSurrogate_77(ptr noundef %7, i32 noundef %indvars.iv, ptr noundef null, ptr noundef nonnull @_ZN6icu_77L18enumRangeLeadValueEPKviij, ptr noundef nonnull %3)
  %8 = load ptr, ptr %4, align 8, !tbaa !80
  %9 = load i32, ptr %3, align 4, !tbaa !66
  %10 = or i32 %9, 205
  call void @utrie2_set32ForLeadSurrogateCodeUnit_77(ptr noundef %8, i32 noundef %indvars.iv, i32 noundef %10, ptr noundef nonnull %1)
  call void @llvm.lifetime.end.p0(i64 4, ptr nonnull %3) #19
  %indvars.iv.next = add nuw nsw i32 %indvars.iv, 1
  %exitcond.not = icmp eq i32 %indvars.iv.next, 56320
  br i1 %exitcond.not, label %5, label %6, !llvm.loop !165
}